; Function Attrs: null_pointer_is_valid sspstrong uwtable
define internal noundef i32 @netlogon_dissect_LM_OWF_PASSWORD(ptr noundef %0, i32 noundef %1, ptr readnone captures(none) %2, ptr noundef %3, ptr noundef readonly captures(none) %4, ptr readnone captures(none) %5) #0 {
  %7 = alloca ptr, align 8
  call void @llvm.lifetime.start.p0(i64 8, ptr nonnull %7) #15
  store ptr null, ptr %7, align 8
  %8 = getelementptr inbounds nuw i8, ptr %4, i64 25
  %9 = load i8, ptr %8, align 1, !range !6, !noundef !7
  %10 = trunc nuw i8 %9 to i1
  br i1 %10, label %19, label %11

11:                                               ; preds = %6
  %.not = icmp eq ptr %3, null
  br i1 %.not, label %15, label %12

12:                                               ; preds = %11
  %13 = load i32, ptr @ett_LM_OWF_PASSWORD, align 4
  %14 = call ptr @proto_tree_add_subtree(ptr noundef nonnull %3, ptr noundef %0, i32 noundef %1, i32 noundef 16, i32 noundef %13, ptr noundef nonnull %7, ptr noundef nonnull @.str.1155)
  br label %15

15:                                               ; preds = %12, %11
  %.0 = phi ptr [ %14, %12 ], [ null, %11 ]
  %16 = load i32, ptr @hf_netlogon_lm_owf_password, align 4
  %17 = call ptr @proto_tree_add_item(ptr noundef %.0, i32 noundef %16, ptr noundef %0, i32 noundef %1, i32 noundef 16, i32 noundef 0)
  %18 = add i32 %1, 16
  br label %19

19:                                               ; preds = %6, %15
  %.011 = phi i32 [ %18, %15 ], [ %1, %6 ]
  call void @llvm.lifetime.end.p0(i64 8, ptr nonnull %7) #15
  ret i32 %.011
}